; Function Attrs: mustprogress uwtable
define hidden void @_ZN5zxing14DetectorResult7SetGrayENS_3RefINS_10ByteMatrixEEE(ptr noundef nonnull align 8 captures(none) dereferenceable(64) %0, ptr noundef readonly captures(none) %1) local_unnamed_addr #1 align 2 {
  %3 = getelementptr inbounds nuw i8, ptr %0, i64 24
  %4 = load ptr, ptr %1, align 8, !tbaa !14
  %.not.i.i = icmp eq ptr %4, null
  br i1 %.not.i.i, label %9, label %5

5:                                                ; preds = %2
  %6 = getelementptr inbounds nuw i8, ptr %4, i64 8
  %7 = load i32, ptr %6, align 8, !tbaa !3
  %8 = add i32 %7, 1
  store i32 %8, ptr %6, align 8, !tbaa !3
  br label %9

9:                                                ; preds = %5, %2
  %10 = load ptr, ptr %3, align 8, !tbaa !14
  %.not5.i.i = icmp eq ptr %10, null
  br i1 %.not5.i.i, label %_ZN5zxing3RefINS_10ByteMatrixEEaSERKS2_.exit, label %11

11:                                               ; preds = %9
  %12 = getelementptr inbounds nuw i8, ptr %10, i64 8
  %13 = load i32, ptr %12, align 8, !tbaa !3
  %14 = add i32 %13, -1
  store i32 %14, ptr %12, align 8, !tbaa !3
  %15 = icmp eq i32 %14, 0
  br i1 %15, label %16, label %_ZN5zxing3RefINS_10ByteMatrixEEaSERKS2_.exit

16:                                               ; preds = %11
  store i32 -559026175, ptr %12, align 8, !tbaa !3
  %17 = load ptr, ptr %10, align 8, !tbaa !8
  %18 = getelementptr inbounds nuw i8, ptr %17, i64 8
  %19 = load ptr, ptr %18, align 8
  tail call void %19(ptr noundef nonnull align 8 dereferenceable(12) %10) #5
  br label %_ZN5zxing3RefINS_10ByteMatrixEEaSERKS2_.exit

_ZN5zxing3RefINS_10ByteMatrixEEaSERKS2_.exit:     ; preds = %9, %11, %16
  store ptr %4, ptr %3, align 8, !tbaa !14
  ret void
}